	.file	"sum.c"
	.text
	.section	.rodata
.LC0:
	.string	"i=%d s=%d n=%d\n"
.LC1:
	.string	"i=%d s=%d\n"
	.text
	.globl	sum
	.type	sum, @function
sum:
.LFB0:
	.cfi_startproc
	pushq	%rbp
	.cfi_def_cfa_offset 16
	.cfi_offset 6, -16
	movq	%rsp, %rbp
	.cfi_def_cfa_register 6
	subq	$32, %rsp
	movl	%edi, -20(%rbp)
	movl	$0, -8(%rbp)
	movl	$1, -4(%rbp)
	movl	-20(%rbp), %ecx
	movl	-8(%rbp), %edx
	movl	-4(%rbp), %eax
	movl	%eax, %esi
	leaq	.LC0(%rip), %rdi
	movl	$0, %eax
	call	printf@PLT
	jmp	.L2
.L3:
	movl	-4(%rbp), %eax
	addl	%eax, -8(%rbp)
	movl	-8(%rbp), %edx
	movl	-4(%rbp), %eax
	movl	%eax, %esi
	leaq	.LC1(%rip), %rdi
	movl	$0, %eax
	call	printf@PLT
	addl	$1, -4(%rbp)
.L2:
	movl	-4(%rbp), %eax
	cmpl	-20(%rbp), %eax
	jle	.L3
	movl	-8(%rbp), %eax
	leave
	.cfi_def_cfa 7, 8
	ret
	.cfi_endproc
.LFE0:
	.size	sum, .-sum
	.section	.rodata
.LC2:
	.string	"sum(10)=%d\n"
	.text
	.globl	main
	.type	main, @function
main:
.LFB1:
	.cfi_startproc
	pushq	%rbp
	.cfi_def_cfa_offset 16
	.cfi_offset 6, -16
	movq	%rsp, %rbp
	.cfi_def_cfa_register 6
	movl	$10, %edi
	call	sum
	movl	%eax, %esi
	leaq	.LC2(%rip), %rdi
	movl	$0, %eax
	call	printf@PLT
	movl	$0, %eax
	popq	%rbp
	.cfi_def_cfa 7, 8
	ret
	.cfi_endproc
.LFE1:
	.size	main, .-main
	.ident	"GCC: (Ubuntu 7.3.0-27ubuntu1~18.04) 7.3.0"
	.section	.note.GNU-stack,"",@progbits
